target datalayout = "e-m:e-p270:32:32-p271:32:32-p272:64:64-i64:64-i128:128-f80:128-n8:16:32:64-S128"
target triple = "x86_64-pc-linux-gnu"

%struct.ResourceHeader = type { i32, i64, i64, i32, i32, i8 }
%class.ImageStrings = type <{ ptr, i32, [4 x i8] }>

; Function Attrs: mustprogress nounwind uwtable
define linkonce_odr hidden noundef zeroext i1 @_ZN6Endian16is_little_endianEv() #4 comdat align 2 {
  %1 = alloca i32, align 4
  store i32 1, ptr %1, align 4
  %2 = load i8, ptr %1, align 4
  %3 = zext i8 %2 to i32
  %4 = icmp ne i32 %3, 0
  ret i1 %4
}

; Function Attrs: mustprogress uwtable
define linkonce_odr hidden noundef zeroext i1 @_ZN6Endian13is_big_endianEv() #0 comdat align 2 {
  %1 = call noundef zeroext i1 @_ZN6Endian16is_little_endianEv()
  %2 = xor i1 %1, true
  ret i1 %2
}

; Function Attrs: mustprogress nounwind uwtable
define linkonce_odr hidden noundef ptr @_ZNK12ImageStrings3getEj(ptr noundef nonnull align 8 dereferenceable(12) %0, i32 noundef %1) #4 comdat align 2 {
  %3 = alloca ptr, align 8
  %4 = alloca i32, align 4
  store ptr %0, ptr %3, align 8
  store i32 %1, ptr %4, align 4
  %5 = load ptr, ptr %3, align 8
  %6 = getelementptr inbounds %class.ImageStrings, ptr %5, i32 0, i32 0
  %7 = load ptr, ptr %6, align 8
  %8 = load i32, ptr %4, align 4
  %9 = zext i32 %8 to i64
  %10 = getelementptr inbounds i8, ptr %7, i64 %9
  ret ptr %10
}

; Function Attrs: mustprogress uwtable
define hidden noundef i64 @_ZN17ImageDecompressor5getU8EPhP6Endian(ptr noundef %0, ptr noundef %1) #0 align 2 {
  %3 = alloca ptr, align 8
  %4 = alloca ptr, align 8
  %5 = alloca i64, align 8
  store ptr %0, ptr %3, align 8
  store ptr %1, ptr %4, align 8
  %6 = call noundef zeroext i1 @_ZN6Endian13is_big_endianEv()
  br i1 %6, label %7, label %57

7:                                                ; preds = %2
  %8 = load ptr, ptr %3, align 8
  %9 = getelementptr inbounds i8, ptr %8, i64 0
  %10 = load i8, ptr %9, align 1
  %11 = zext i8 %10 to i64
  %12 = shl i64 %11, 56
  %13 = load ptr, ptr %3, align 8
  %14 = getelementptr inbounds i8, ptr %13, i64 1
  %15 = load i8, ptr %14, align 1
  %16 = zext i8 %15 to i64
  %17 = shl i64 %16, 48
  %18 = or i64 %12, %17
  %19 = load ptr, ptr %3, align 8
  %20 = getelementptr inbounds i8, ptr %19, i64 2
  %21 = load i8, ptr %20, align 1
  %22 = zext i8 %21 to i64
  %23 = shl i64 %22, 40
  %24 = or i64 %18, %23
  %25 = load ptr, ptr %3, align 8
  %26 = getelementptr inbounds i8, ptr %25, i64 3
  %27 = load i8, ptr %26, align 1
  %28 = zext i8 %27 to i64
  %29 = shl i64 %28, 32
  %30 = or i64 %24, %29
  %31 = load ptr, ptr %3, align 8
  %32 = getelementptr inbounds i8, ptr %31, i64 4
  %33 = load i8, ptr %32, align 1
  %34 = zext i8 %33 to i32
  %35 = shl i32 %34, 24
  %36 = sext i32 %35 to i64
  %37 = or i64 %30, %36
  %38 = load ptr, ptr %3, align 8
  %39 = getelementptr inbounds i8, ptr %38, i64 5
  %40 = load i8, ptr %39, align 1
  %41 = zext i8 %40 to i32
  %42 = shl i32 %41, 16
  %43 = sext i32 %42 to i64
  %44 = or i64 %37, %43
  %45 = load ptr, ptr %3, align 8
  %46 = getelementptr inbounds i8, ptr %45, i64 6
  %47 = load i8, ptr %46, align 1
  %48 = zext i8 %47 to i32
  %49 = shl i32 %48, 8
  %50 = sext i32 %49 to i64
  %51 = or i64 %44, %50
  %52 = load ptr, ptr %3, align 8
  %53 = getelementptr inbounds i8, ptr %52, i64 7
  %54 = load i8, ptr %53, align 1
  %55 = zext i8 %54 to i64
  %56 = or i64 %51, %55
  store i64 %56, ptr %5, align 8
  br label %105

57:                                               ; preds = %2
  %58 = load ptr, ptr %3, align 8
  %59 = getelementptr inbounds i8, ptr %58, i64 0
  %60 = load i8, ptr %59, align 1
  %61 = zext i8 %60 to i32
  %62 = load ptr, ptr %3, align 8
  %63 = getelementptr inbounds i8, ptr %62, i64 1
  %64 = load i8, ptr %63, align 1
  %65 = zext i8 %64 to i32
  %66 = shl i32 %65, 8
  %67 = or i32 %61, %66
  %68 = load ptr, ptr %3, align 8
  %69 = getelementptr inbounds i8, ptr %68, i64 2
  %70 = load i8, ptr %69, align 1
  %71 = zext i8 %70 to i32
  %72 = shl i32 %71, 16
  %73 = or i32 %67, %72
  %74 = load ptr, ptr %3, align 8
  %75 = getelementptr inbounds i8, ptr %74, i64 3
  %76 = load i8, ptr %75, align 1
  %77 = zext i8 %76 to i32
  %78 = shl i32 %77, 24
  %79 = or i32 %73, %78
  %80 = sext i32 %79 to i64
  %81 = load ptr, ptr %3, align 8
  %82 = getelementptr inbounds i8, ptr %81, i64 4
  %83 = load i8, ptr %82, align 1
  %84 = zext i8 %83 to i64
  %85 = shl i64 %84, 32
  %86 = or i64 %80, %85
  %87 = load ptr, ptr %3, align 8
  %88 = getelementptr inbounds i8, ptr %87, i64 5
  %89 = load i8, ptr %88, align 1
  %90 = zext i8 %89 to i64
  %91 = shl i64 %90, 40
  %92 = or i64 %86, %91
  %93 = load ptr, ptr %3, align 8
  %94 = getelementptr inbounds i8, ptr %93, i64 6
  %95 = load i8, ptr %94, align 1
  %96 = zext i8 %95 to i64
  %97 = shl i64 %96, 48
  %98 = or i64 %92, %97
  %99 = load ptr, ptr %3, align 8
  %100 = getelementptr inbounds i8, ptr %99, i64 7
  %101 = load i8, ptr %100, align 1
  %102 = zext i8 %101 to i64
  %103 = shl i64 %102, 56
  %104 = or i64 %98, %103
  store i64 %104, ptr %5, align 8
  br label %105

105:                                              ; preds = %57, %7
  %106 = load i64, ptr %5, align 8
  ret i64 %106
}

; Function Attrs: mustprogress uwtable
define hidden noundef i32 @_ZN17ImageDecompressor5getU4EPhP6Endian(ptr noundef %0, ptr noundef %1) #0 align 2 {
  %3 = alloca ptr, align 8
  %4 = alloca ptr, align 8
  %5 = alloca i32, align 4
  store ptr %0, ptr %3, align 8
  store ptr %1, ptr %4, align 8
  %6 = call noundef zeroext i1 @_ZN6Endian13is_big_endianEv()
  br i1 %6, label %7, label %30

7:                                                ; preds = %2
  %8 = load ptr, ptr %3, align 8
  %9 = getelementptr inbounds i8, ptr %8, i64 0
  %10 = load i8, ptr %9, align 1
  %11 = zext i8 %10 to i32
  %12 = shl i32 %11, 24
  %13 = load ptr, ptr %3, align 8
  %14 = getelementptr inbounds i8, ptr %13, i64 1
  %15 = load i8, ptr %14, align 1
  %16 = zext i8 %15 to i32
  %17 = shl i32 %16, 16
  %18 = or i32 %12, %17
  %19 = load ptr, ptr %3, align 8
  %20 = getelementptr inbounds i8, ptr %19, i64 2
  %21 = load i8, ptr %20, align 1
  %22 = zext i8 %21 to i32
  %23 = shl i32 %22, 8
  %24 = or i32 %18, %23
  %25 = load ptr, ptr %3, align 8
  %26 = getelementptr inbounds i8, ptr %25, i64 3
  %27 = load i8, ptr %26, align 1
  %28 = zext i8 %27 to i32
  %29 = or i32 %24, %28
  store i32 %29, ptr %5, align 4
  br label %53

30:                                               ; preds = %2
  %31 = load ptr, ptr %3, align 8
  %32 = getelementptr inbounds i8, ptr %31, i64 0
  %33 = load i8, ptr %32, align 1
  %34 = zext i8 %33 to i32
  %35 = load ptr, ptr %3, align 8
  %36 = getelementptr inbounds i8, ptr %35, i64 1
  %37 = load i8, ptr %36, align 1
  %38 = zext i8 %37 to i32
  %39 = shl i32 %38, 8
  %40 = or i32 %34, %39
  %41 = load ptr, ptr %3, align 8
  %42 = getelementptr inbounds i8, ptr %41, i64 2
  %43 = load i8, ptr %42, align 1
  %44 = zext i8 %43 to i32
  %45 = shl i32 %44, 16
  %46 = or i32 %40, %45
  %47 = load ptr, ptr %3, align 8
  %48 = getelementptr inbounds i8, ptr %47, i64 3
  %49 = load i8, ptr %48, align 1
  %50 = zext i8 %49 to i32
  %51 = shl i32 %50, 24
  %52 = or i32 %46, %51
  store i32 %52, ptr %5, align 4
  br label %53

53:                                               ; preds = %30, %7
  %54 = load i32, ptr %5, align 4
  ret i32 %54
}

; Function Attrs: mustprogress uwtable
define hidden void @_ZN17ImageDecompressor19decompress_resourceEPhS0_yPK12ImageStringsP6Endian(ptr noundef %0, ptr noundef %1, i64 noundef %2, ptr noundef %3, ptr noundef %4) #0 align 2 {
  %6 = alloca ptr, align 8
  %7 = alloca ptr, align 8
  %8 = alloca i64, align 8
  %9 = alloca ptr, align 8
  %10 = alloca ptr, align 8
  %11 = alloca i8, align 1
  %12 = alloca ptr, align 8
  %13 = alloca ptr, align 8
  %14 = alloca %struct.ResourceHeader, align 8
  %15 = alloca ptr, align 8
  %16 = alloca ptr, align 8
  %17 = alloca ptr, align 8
  store ptr %0, ptr %6, align 8
  store ptr %1, ptr %7, align 8
  store i64 %2, ptr %8, align 8
  store ptr %3, ptr %9, align 8
  store ptr %4, ptr %10, align 8
  store i8 0, ptr %11, align 1
  %18 = load ptr, ptr %6, align 8
  store ptr %18, ptr %12, align 8
  %19 = load ptr, ptr %6, align 8
  store ptr %19, ptr %13, align 8
  br label %20

20:                                               ; preds = %91, %5
  %21 = load ptr, ptr %13, align 8
  store ptr %21, ptr %15, align 8
  %22 = load ptr, ptr %13, align 8
  %23 = load ptr, ptr %10, align 8
  %24 = call noundef i32 @_ZN17ImageDecompressor5getU4EPhP6Endian(ptr noundef %22, ptr noundef %23)
  %25 = getelementptr inbounds %struct.ResourceHeader, ptr %14, i32 0, i32 0
  store i32 %24, ptr %25, align 8
  %26 = load ptr, ptr %13, align 8
  %27 = getelementptr inbounds i8, ptr %26, i64 4
  store ptr %27, ptr %13, align 8
  %28 = load ptr, ptr %13, align 8
  %29 = load ptr, ptr %10, align 8
  %30 = call noundef i64 @_ZN17ImageDecompressor5getU8EPhP6Endian(ptr noundef %28, ptr noundef %29)
  %31 = getelementptr inbounds %struct.ResourceHeader, ptr %14, i32 0, i32 1
  store i64 %30, ptr %31, align 8
  %32 = load ptr, ptr %13, align 8
  %33 = getelementptr inbounds i8, ptr %32, i64 8
  store ptr %33, ptr %13, align 8
  %34 = load ptr, ptr %13, align 8
  %35 = load ptr, ptr %10, align 8
  %36 = call noundef i64 @_ZN17ImageDecompressor5getU8EPhP6Endian(ptr noundef %34, ptr noundef %35)
  %37 = getelementptr inbounds %struct.ResourceHeader, ptr %14, i32 0, i32 2
  store i64 %36, ptr %37, align 8
  %38 = load ptr, ptr %13, align 8
  %39 = getelementptr inbounds i8, ptr %38, i64 8
  store ptr %39, ptr %13, align 8
  %40 = load ptr, ptr %13, align 8
  %41 = load ptr, ptr %10, align 8
  %42 = call noundef i32 @_ZN17ImageDecompressor5getU4EPhP6Endian(ptr noundef %40, ptr noundef %41)
  %43 = getelementptr inbounds %struct.ResourceHeader, ptr %14, i32 0, i32 3
  store i32 %42, ptr %43, align 8
  %44 = load ptr, ptr %13, align 8
  %45 = getelementptr inbounds i8, ptr %44, i64 4
  store ptr %45, ptr %13, align 8
  %46 = load ptr, ptr %13, align 8
  %47 = load ptr, ptr %10, align 8
  %48 = call noundef i32 @_ZN17ImageDecompressor5getU4EPhP6Endian(ptr noundef %46, ptr noundef %47)
  %49 = getelementptr inbounds %struct.ResourceHeader, ptr %14, i32 0, i32 4
  store i32 %48, ptr %49, align 4
  %50 = load ptr, ptr %13, align 8
  %51 = getelementptr inbounds i8, ptr %50, i64 4
  store ptr %51, ptr %13, align 8
  %52 = load ptr, ptr %13, align 8
  %53 = load i8, ptr %52, align 1
  %54 = getelementptr inbounds %struct.ResourceHeader, ptr %14, i32 0, i32 5
  store i8 %53, ptr %54, align 8
  %55 = load ptr, ptr %13, align 8
  %56 = getelementptr inbounds i8, ptr %55, i64 1
  store ptr %56, ptr %13, align 8
  %57 = getelementptr inbounds %struct.ResourceHeader, ptr %14, i32 0, i32 0
  %58 = load i32, ptr %57, align 8
  %59 = icmp eq i32 %58, -889259270
  %60 = zext i1 %59 to i8
  store i8 %60, ptr %11, align 1
  %61 = load i8, ptr %11, align 1
  %62 = trunc i8 %61 to i1
  br i1 %62, label %63, label %90

63:                                               ; preds = %20
  %64 = getelementptr inbounds %struct.ResourceHeader, ptr %14, i32 0, i32 2
  %65 = load i64, ptr %64, align 8
  %66 = call noalias noundef nonnull ptr @_Znam(i64 noundef %65) #9
  store ptr %66, ptr %12, align 8
  %67 = load ptr, ptr %9, align 8
  %68 = getelementptr inbounds %struct.ResourceHeader, ptr %14, i32 0, i32 3
  %69 = load i32, ptr %68, align 8
  %70 = call noundef ptr @_ZNK12ImageStrings3getEj(ptr noundef nonnull align 8 dereferenceable(12) %67, i32 noundef %69)
  store ptr %70, ptr %16, align 8
  %71 = load ptr, ptr %16, align 8
  %72 = call noundef ptr @_ZN17ImageDecompressor16get_decompressorEPKc(ptr noundef %71)
  store ptr %72, ptr %17, align 8
  %73 = load ptr, ptr %17, align 8
  %74 = load ptr, ptr %13, align 8
  %75 = load ptr, ptr %12, align 8
  %76 = load ptr, ptr %9, align 8
  %77 = load ptr, ptr %73, align 8
  %78 = getelementptr inbounds ptr, ptr %77, i64 0
  %79 = load ptr, ptr %78, align 8
  call void %79(ptr noundef nonnull align 8 dereferenceable(16) %73, ptr noundef %74, ptr noundef %75, ptr noundef %14, ptr noundef %76)
  %80 = load ptr, ptr %15, align 8
  %81 = load ptr, ptr %6, align 8
  %82 = icmp ne ptr %80, %81
  br i1 %82, label %83, label %88

83:                                               ; preds = %63
  %84 = load ptr, ptr %15, align 8
  %85 = icmp eq ptr %84, null
  br i1 %85, label %87, label %86

86:                                               ; preds = %83
  call void @_ZdaPv(ptr noundef %84) #10
  br label %87

87:                                               ; preds = %86, %83
  br label %88

88:                                               ; preds = %87, %63
  %89 = load ptr, ptr %12, align 8
  store ptr %89, ptr %13, align 8
  br label %90

90:                                               ; preds = %88, %20
  br label %91

91:                                               ; preds = %90
  %92 = load i8, ptr %11, align 1
  %93 = trunc i8 %92 to i1
  br i1 %93, label %20, label %94, !llvm.loop !8

94:                                               ; preds = %91
  %95 = load ptr, ptr %7, align 8
  %96 = load ptr, ptr %12, align 8
  %97 = load i64, ptr %8, align 8
  call void @llvm.memcpy.p0.p0.i64(ptr align 1 %95, ptr align 1 %96, i64 %97, i1 false)
  %98 = load ptr, ptr %12, align 8
  %99 = icmp eq ptr %98, null
  br i1 %99, label %101, label %100

100:                                              ; preds = %94
  call void @_ZdaPv(ptr noundef %98) #10
  br label %101

101:                                              ; preds = %100, %94
  ret void
}