; Function Attrs: mustprogress uwtable
define hidden void @_ZN17ImageDecompressor19decompress_resourceEPhS0_yPK12ImageStringsP6Endian(ptr noundef %0, ptr nocapture noundef writeonly %1, i64 noundef %2, ptr noundef %3, ptr nocapture noundef readnone %4) local_unnamed_addr #0 align 2 {
  %6 = alloca %struct.ResourceHeader, align 8
  %7 = getelementptr inbounds i8, ptr %6, i64 8
  %8 = getelementptr inbounds i8, ptr %6, i64 16
  %9 = getelementptr inbounds i8, ptr %6, i64 24
  %10 = getelementptr inbounds i8, ptr %6, i64 32
  br label %11

11:                                               ; preds = %.backedge, %5
  %.035 = phi ptr [ %0, %5 ], [ %66, %.backedge ]
  %12 = load i32, ptr %.035, align 1
  store i32 %12, ptr %6, align 8
  %13 = getelementptr inbounds i8, ptr %.035, i64 4
  %14 = load i32, ptr %13, align 1
  %15 = sext i32 %14 to i64
  %16 = getelementptr inbounds i8, ptr %.035, i64 8
  %17 = load i8, ptr %16, align 1
  %18 = zext i8 %17 to i64
  %19 = shl nuw nsw i64 %18, 32
  %20 = or i64 %19, %15
  %21 = getelementptr inbounds i8, ptr %.035, i64 9
  %22 = load i8, ptr %21, align 1
  %23 = zext i8 %22 to i64
  %24 = shl nuw nsw i64 %23, 40
  %25 = or i64 %20, %24
  %26 = getelementptr inbounds i8, ptr %.035, i64 10
  %27 = load i8, ptr %26, align 1
  %28 = zext i8 %27 to i64
  %29 = shl nuw nsw i64 %28, 48
  %30 = or i64 %25, %29
  %31 = getelementptr inbounds i8, ptr %.035, i64 11
  %32 = load i8, ptr %31, align 1
  %33 = zext i8 %32 to i64
  %34 = shl nuw i64 %33, 56
  %35 = or i64 %30, %34
  store i64 %35, ptr %7, align 8
  %36 = getelementptr inbounds i8, ptr %.035, i64 12
  %37 = load i32, ptr %36, align 1
  %38 = sext i32 %37 to i64
  %39 = getelementptr inbounds i8, ptr %.035, i64 16
  %40 = load i8, ptr %39, align 1
  %41 = zext i8 %40 to i64
  %42 = shl nuw nsw i64 %41, 32
  %43 = or i64 %42, %38
  %44 = getelementptr inbounds i8, ptr %.035, i64 17
  %45 = load i8, ptr %44, align 1
  %46 = zext i8 %45 to i64
  %47 = shl nuw nsw i64 %46, 40
  %48 = or i64 %43, %47
  %49 = getelementptr inbounds i8, ptr %.035, i64 18
  %50 = load i8, ptr %49, align 1
  %51 = zext i8 %50 to i64
  %52 = shl nuw nsw i64 %51, 48
  %53 = or i64 %48, %52
  %54 = getelementptr inbounds i8, ptr %.035, i64 19
  %55 = load i8, ptr %54, align 1
  %56 = zext i8 %55 to i64
  %57 = shl nuw i64 %56, 56
  %58 = or i64 %53, %57
  store i64 %58, ptr %8, align 8
  %59 = getelementptr inbounds i8, ptr %.035, i64 20
  %60 = load <2 x i32>, ptr %59, align 1
  store <2 x i32> %60, ptr %9, align 8
  %61 = getelementptr inbounds i8, ptr %.035, i64 28
  %62 = load i8, ptr %61, align 1
  store i8 %62, ptr %10, align 8
  %63 = icmp eq i32 %12, -889259270
  br i1 %63, label %64, label %75

64:                                               ; preds = %11
  %65 = getelementptr inbounds i8, ptr %.035, i64 29
  %66 = call noalias noundef nonnull ptr @_Znam(i64 noundef %58) #12
  %67 = load ptr, ptr %3, align 8
  %68 = extractelement <2 x i32> %60, i64 0
  %69 = zext i32 %68 to i64
  %70 = getelementptr inbounds i8, ptr %67, i64 %69
  %71 = call noundef ptr @_ZN17ImageDecompressor16get_decompressorEPKc(ptr noundef %70)
  %72 = load ptr, ptr %71, align 8
  %73 = load ptr, ptr %72, align 8
  call void %73(ptr noundef nonnull align 8 dereferenceable(16) %71, ptr noundef nonnull %65, ptr noundef nonnull %66, ptr noundef nonnull %6, ptr noundef nonnull %3)
  %.not = icmp eq ptr %.035, %0
  br i1 %.not, label %.backedge, label %74

.backedge:                                        ; preds = %64, %74
  br label %11, !llvm.loop !8

74:                                               ; preds = %64
  call void @_ZdaPv(ptr noundef nonnull %.035) #13
  br label %.backedge

75:                                               ; preds = %11
  call void @llvm.memcpy.p0.p0.i64(ptr align 1 %1, ptr nonnull align 1 %.035, i64 %2, i1 false)
  call void @_ZdaPv(ptr noundef nonnull %.035) #13
  ret void
}